target datalayout = "e-m:e-p270:32:32-p271:32:32-p272:64:64-i64:64-i128:128-f80:128-n8:16:32:64-S128"
target triple = "x86_64-pc-linux-gnu"

%struct.stbte__colorrect = type { i32, i32, i32, i32, i32 }
%struct.stbte__panel = type { i32, i32, i32, i32, i32, i32, i32, i32 }
%struct.stbte__ui_t = type { i32, i32, i32, i32, i32, i32, i32, i32, i32, i32, i32, i32, i32, i32, [2 x i32], [256 x %struct.stbte__colorrect], i32, i32, i32, i32, i32, i32, i32, i32, i32, i32, i32, i32, i32, i32, i32, i32, i32, i32, i32, i32, i32, i32, i32, i32, i32, i32, i32, i32, i32, i32, i32, i32, i32, i32, i32, i32, i32, i32, i32, i32, i32, float, ptr, float, [7 x %struct.stbte__panel], [65536 x [8 x i16]], [65536 x [1 x float]], i32, i32, ptr, i32, i32, i32, i32 }
%struct.stbte_tilemap = type { [200 x [200 x [8 x i16]]], [200 x [200 x [1 x float]]], i32, i32, i32, i32, i32, i32, i32, i32, i32, i32, i32, i32, [100 x ptr], i32, i32, ptr, i32, i32, i32, i8, i8, i8, i8, i32, i32, i32, [8 x %struct.stbte__layer], i32, i32, i32, i32, i32, i32, i32, i32, i16, [4096 x i8], ptr }
%struct.stbte__layer = type { ptr, i32, i32 }

; Function Attrs: nounwind uwtable
define void @stbte__activate(i32 noundef %0) #0 {
  %2 = alloca i32, align 4
  store i32 %0, ptr %2, align 4, !tbaa !13
  %3 = load i32, ptr %2, align 4, !tbaa !13
  store i32 %3, ptr getelementptr inbounds nuw (%struct.stbte__ui_t, ptr @stbte__ui, i32 0, i32 2), align 8, !tbaa !109
  %4 = load i32, ptr getelementptr inbounds nuw (%struct.stbte__ui_t, ptr @stbte__ui, i32 0, i32 5), align 4, !tbaa !110
  store i32 %4, ptr getelementptr inbounds nuw (%struct.stbte__ui_t, ptr @stbte__ui, i32 0, i32 1), align 4, !tbaa !111
  store i32 0, ptr getelementptr inbounds nuw (%struct.stbte__ui_t, ptr @stbte__ui, i32 0, i32 31), align 4, !tbaa !112
  store i32 0, ptr getelementptr inbounds nuw (%struct.stbte__ui_t, ptr @stbte__ui, i32 0, i32 32), align 8, !tbaa !113
  ret void
}

; Function Attrs: nounwind uwtable
define void @stbte__start_paste(ptr noundef %0) #0 {
  %2 = alloca ptr, align 8
  store ptr %0, ptr %2, align 8, !tbaa !25
  %3 = load i32, ptr getelementptr inbounds nuw (%struct.stbte__ui_t, ptr @stbte__ui, i32 0, i32 68), align 8, !tbaa !172
  %4 = icmp ne i32 %3, 0
  br i1 %4, label %5, label %6

5:                                                ; preds = %1
  store i32 1, ptr getelementptr inbounds nuw (%struct.stbte__ui_t, ptr @stbte__ui, i32 0, i32 23), align 4, !tbaa !196
  call void @stbte__activate(i32 noundef 390)
  br label %6

6:                                                ; preds = %5, %1
  ret void
}

; Function Attrs: nounwind uwtable
define void @stbte_action(ptr noundef %0, i32 noundef %1) #0 {
  %3 = alloca ptr, align 8
  %4 = alloca i32, align 4
  store ptr %0, ptr %3, align 8, !tbaa !25
  store i32 %1, ptr %4, align 4, !tbaa !13
  %5 = load i32, ptr %4, align 4, !tbaa !13
  switch i32 %5, label %61 [
    i32 0, label %6
    i32 1, label %7
    i32 2, label %8
    i32 3, label %9
    i32 4, label %10
    i32 5, label %11
    i32 6, label %12
    i32 7, label %16
    i32 8, label %19
    i32 9, label %21
    i32 10, label %23
    i32 11, label %25
    i32 12, label %27
    i32 13, label %29
    i32 14, label %37
    i32 15, label %45
    i32 16, label %53
  ]

6:                                                ; preds = %2
  store i32 0, ptr @stbte__ui, align 8, !tbaa !201
  br label %61

7:                                                ; preds = %2
  store i32 1, ptr @stbte__ui, align 8, !tbaa !201
  br label %61

8:                                                ; preds = %2
  store i32 2, ptr @stbte__ui, align 8, !tbaa !201
  br label %61

9:                                                ; preds = %2
  store i32 3, ptr @stbte__ui, align 8, !tbaa !201
  br label %61

10:                                               ; preds = %2
  store i32 4, ptr @stbte__ui, align 8, !tbaa !201
  br label %61

11:                                               ; preds = %2
  store i32 6, ptr @stbte__ui, align 8, !tbaa !201
  br label %61

12:                                               ; preds = %2
  %13 = load i32, ptr getelementptr inbounds nuw (%struct.stbte__ui_t, ptr @stbte__ui, i32 0, i32 17), align 4, !tbaa !212
  %14 = add nsw i32 %13, 1
  %15 = srem i32 %14, 3
  store i32 %15, ptr getelementptr inbounds nuw (%struct.stbte__ui_t, ptr @stbte__ui, i32 0, i32 17), align 4, !tbaa !212
  br label %61

16:                                               ; preds = %2
  %17 = load i32, ptr getelementptr inbounds nuw (%struct.stbte__ui_t, ptr @stbte__ui, i32 0, i32 18), align 8, !tbaa !12
  %18 = xor i32 %17, 1
  store i32 %18, ptr getelementptr inbounds nuw (%struct.stbte__ui_t, ptr @stbte__ui, i32 0, i32 18), align 8, !tbaa !12
  br label %61

19:                                               ; preds = %2
  %20 = load ptr, ptr %3, align 8, !tbaa !25
  call void @stbte__undo(ptr noundef %20)
  br label %61

21:                                               ; preds = %2
  %22 = load ptr, ptr %3, align 8, !tbaa !25
  call void @stbte__redo(ptr noundef %22)
  br label %61

23:                                               ; preds = %2
  %24 = load ptr, ptr %3, align 8, !tbaa !25
  call void @stbte__copy_cut(ptr noundef %24, i32 noundef 1)
  br label %61

25:                                               ; preds = %2
  %26 = load ptr, ptr %3, align 8, !tbaa !25
  call void @stbte__copy_cut(ptr noundef %26, i32 noundef 0)
  br label %61

27:                                               ; preds = %2
  %28 = load ptr, ptr %3, align 8, !tbaa !25
  call void @stbte__start_paste(ptr noundef %28)
  br label %61

29:                                               ; preds = %2
  %30 = load ptr, ptr %3, align 8, !tbaa !25
  %31 = getelementptr inbounds nuw %struct.stbte_tilemap, ptr %30, i32 0, i32 5
  %32 = load i32, ptr %31, align 4, !tbaa !33
  %33 = load ptr, ptr %3, align 8, !tbaa !25
  %34 = getelementptr inbounds nuw %struct.stbte_tilemap, ptr %33, i32 0, i32 9
  %35 = load i32, ptr %34, align 4, !tbaa !35
  %36 = sub nsw i32 %35, %32
  store i32 %36, ptr %34, align 4, !tbaa !35
  br label %61

37:                                               ; preds = %2
  %38 = load ptr, ptr %3, align 8, !tbaa !25
  %39 = getelementptr inbounds nuw %struct.stbte_tilemap, ptr %38, i32 0, i32 5
  %40 = load i32, ptr %39, align 4, !tbaa !33
  %41 = load ptr, ptr %3, align 8, !tbaa !25
  %42 = getelementptr inbounds nuw %struct.stbte_tilemap, ptr %41, i32 0, i32 9
  %43 = load i32, ptr %42, align 4, !tbaa !35
  %44 = add nsw i32 %43, %40
  store i32 %44, ptr %42, align 4, !tbaa !35
  br label %61

45:                                               ; preds = %2
  %46 = load ptr, ptr %3, align 8, !tbaa !25
  %47 = getelementptr inbounds nuw %struct.stbte_tilemap, ptr %46, i32 0, i32 6
  %48 = load i32, ptr %47, align 8, !tbaa !34
  %49 = load ptr, ptr %3, align 8, !tbaa !25
  %50 = getelementptr inbounds nuw %struct.stbte_tilemap, ptr %49, i32 0, i32 10
  %51 = load i32, ptr %50, align 8, !tbaa !36
  %52 = sub nsw i32 %51, %48
  store i32 %52, ptr %50, align 8, !tbaa !36
  br label %61

53:                                               ; preds = %2
  %54 = load ptr, ptr %3, align 8, !tbaa !25
  %55 = getelementptr inbounds nuw %struct.stbte_tilemap, ptr %54, i32 0, i32 6
  %56 = load i32, ptr %55, align 8, !tbaa !34
  %57 = load ptr, ptr %3, align 8, !tbaa !25
  %58 = getelementptr inbounds nuw %struct.stbte_tilemap, ptr %57, i32 0, i32 10
  %59 = load i32, ptr %58, align 8, !tbaa !36
  %60 = add nsw i32 %59, %56
  store i32 %60, ptr %58, align 8, !tbaa !36
  br label %61

61:                                               ; preds = %2, %53, %45, %37, %29, %27, %25, %23, %21, %19, %16, %12, %11, %10, %9, %8, %7, %6
  ret void
}