; Function Attrs: nofree norecurse nosync nounwind memory(readwrite, inaccessiblemem: none) uwtable
define void @stbte_action(ptr noundef %0, i32 noundef %1) local_unnamed_addr #13 {
  switch i32 %1, label %stbte__start_paste.exit [
    i32 0, label %3
    i32 1, label %4
    i32 2, label %5
    i32 3, label %6
    i32 4, label %7
    i32 5, label %8
    i32 6, label %9
    i32 7, label %13
    i32 8, label %16
    i32 9, label %17
    i32 10, label %18
    i32 11, label %19
    i32 12, label %20
    i32 13, label %24
    i32 14, label %30
    i32 15, label %36
    i32 16, label %42
  ]

3:                                                ; preds = %2
  store i32 0, ptr @stbte__ui, align 8, !tbaa !182
  br label %stbte__start_paste.exit

4:                                                ; preds = %2
  store i32 1, ptr @stbte__ui, align 8, !tbaa !182
  br label %stbte__start_paste.exit

5:                                                ; preds = %2
  store i32 2, ptr @stbte__ui, align 8, !tbaa !182
  br label %stbte__start_paste.exit

6:                                                ; preds = %2
  store i32 3, ptr @stbte__ui, align 8, !tbaa !182
  br label %stbte__start_paste.exit

7:                                                ; preds = %2
  store i32 4, ptr @stbte__ui, align 8, !tbaa !182
  br label %stbte__start_paste.exit

8:                                                ; preds = %2
  store i32 6, ptr @stbte__ui, align 8, !tbaa !182
  br label %stbte__start_paste.exit

9:                                                ; preds = %2
  %10 = load i32, ptr getelementptr inbounds nuw (i8, ptr @stbte__ui, i64 5188), align 4, !tbaa !191
  %11 = add nsw i32 %10, 1
  %12 = srem i32 %11, 3
  store i32 %12, ptr getelementptr inbounds nuw (i8, ptr @stbte__ui, i64 5188), align 4, !tbaa !191
  br label %stbte__start_paste.exit

13:                                               ; preds = %2
  %14 = load i32, ptr getelementptr inbounds nuw (i8, ptr @stbte__ui, i64 5192), align 8, !tbaa !12
  %15 = xor i32 %14, 1
  store i32 %15, ptr getelementptr inbounds nuw (i8, ptr @stbte__ui, i64 5192), align 8, !tbaa !12
  br label %stbte__start_paste.exit

16:                                               ; preds = %2
  tail call void @stbte__undo(ptr noundef %0)
  br label %stbte__start_paste.exit

17:                                               ; preds = %2
  tail call void @stbte__redo(ptr noundef %0)
  br label %stbte__start_paste.exit

18:                                               ; preds = %2
  tail call void @stbte__copy_cut(ptr noundef %0, i32 noundef 1)
  br label %stbte__start_paste.exit

19:                                               ; preds = %2
  tail call void @stbte__copy_cut(ptr noundef %0, i32 noundef 0)
  br label %stbte__start_paste.exit

20:                                               ; preds = %2
  %21 = load i32, ptr getelementptr inbounds nuw (i8, ptr @stbte__ui, i64 1316336), align 8, !tbaa !159
  %.not.i = icmp eq i32 %21, 0
  br i1 %.not.i, label %stbte__start_paste.exit, label %22

22:                                               ; preds = %20
  store i32 1, ptr getelementptr inbounds nuw (i8, ptr @stbte__ui, i64 5212), align 4, !tbaa !183
  store i32 390, ptr getelementptr inbounds nuw (i8, ptr @stbte__ui, i64 8), align 8, !tbaa !94
  %23 = load i32, ptr getelementptr inbounds nuw (i8, ptr @stbte__ui, i64 20), align 4, !tbaa !95
  store i32 %23, ptr getelementptr inbounds nuw (i8, ptr @stbte__ui, i64 4), align 4, !tbaa !96
  store i32 0, ptr getelementptr inbounds nuw (i8, ptr @stbte__ui, i64 5244), align 4, !tbaa !97
  store i32 0, ptr getelementptr inbounds nuw (i8, ptr @stbte__ui, i64 5248), align 8, !tbaa !98
  br label %stbte__start_paste.exit

24:                                               ; preds = %2
  %25 = getelementptr inbounds nuw i8, ptr %0, i64 800012
  %26 = load i32, ptr %25, align 4, !tbaa !31
  %27 = getelementptr inbounds nuw i8, ptr %0, i64 800028
  %28 = load i32, ptr %27, align 4, !tbaa !33
  %29 = sub nsw i32 %28, %26
  store i32 %29, ptr %27, align 4, !tbaa !33
  br label %stbte__start_paste.exit

30:                                               ; preds = %2
  %31 = getelementptr inbounds nuw i8, ptr %0, i64 800012
  %32 = load i32, ptr %31, align 4, !tbaa !31
  %33 = getelementptr inbounds nuw i8, ptr %0, i64 800028
  %34 = load i32, ptr %33, align 4, !tbaa !33
  %35 = add nsw i32 %34, %32
  store i32 %35, ptr %33, align 4, !tbaa !33
  br label %stbte__start_paste.exit

36:                                               ; preds = %2
  %37 = getelementptr inbounds nuw i8, ptr %0, i64 800016
  %38 = load i32, ptr %37, align 8, !tbaa !32
  %39 = getelementptr inbounds nuw i8, ptr %0, i64 800032
  %40 = load i32, ptr %39, align 8, !tbaa !34
  %41 = sub nsw i32 %40, %38
  store i32 %41, ptr %39, align 8, !tbaa !34
  br label %stbte__start_paste.exit

42:                                               ; preds = %2
  %43 = getelementptr inbounds nuw i8, ptr %0, i64 800016
  %44 = load i32, ptr %43, align 8, !tbaa !32
  %45 = getelementptr inbounds nuw i8, ptr %0, i64 800032
  %46 = load i32, ptr %45, align 8, !tbaa !34
  %47 = add nsw i32 %46, %44
  store i32 %47, ptr %45, align 8, !tbaa !34
  br label %stbte__start_paste.exit

stbte__start_paste.exit:                          ; preds = %22, %20, %42, %36, %30, %24, %19, %18, %17, %16, %13, %9, %8, %7, %6, %5, %4, %3, %2
  ret void
}